target datalayout = "e-m:e-p270:32:32-p271:32:32-p272:64:64-i64:64-i128:128-f80:128-n8:16:32:64-S128"
target triple = "x86_64-pc-linux-gnu"

%struct.Vec_Wrd_t_ = type { i32, i32, ptr }

@.str = private unnamed_addr constant [3 x i8] c"rb\00", align 1
@.str.1 = private unnamed_addr constant [36 x i8] c"Cannot open file \22%s\22 for reading.\0A\00", align 1
@.str.8 = private unnamed_addr constant [88 x i8] c"Cannot read file with simulation data that is not aligned at 8 bytes (remainder = %d).\0A\00", align 1
@.str.10 = private unnamed_addr constant [48 x i8] c"Cannot find the number of inputs in file \22%s\22.\0A\00", align 1
@.str.11 = private unnamed_addr constant [99 x i8] c"Read %d words of simulation data for %d inputs (padded to 64-bit boundary with %d zero-patterns).\0A\00", align 1

; Function Attrs: inlinehint nounwind uwtable
define internal ptr @Vec_WrdAlloc(i32 noundef %0) #3 {
  %2 = alloca i32, align 4
  %3 = alloca ptr, align 8
  store i32 %0, ptr %2, align 4, !tbaa !14
  call void @llvm.lifetime.start.p0(i64 8, ptr %3) #13
  %4 = call noalias ptr @malloc(i64 noundef 16) #15
  store ptr %4, ptr %3, align 8, !tbaa !71
  %5 = load i32, ptr %2, align 4, !tbaa !14
  %6 = icmp sgt i32 %5, 0
  br i1 %6, label %7, label %11

7:                                                ; preds = %1
  %8 = load i32, ptr %2, align 4, !tbaa !14
  %9 = icmp slt i32 %8, 16
  br i1 %9, label %10, label %11

10:                                               ; preds = %7
  store i32 16, ptr %2, align 4, !tbaa !14
  br label %11

11:                                               ; preds = %10, %7, %1
  %12 = load ptr, ptr %3, align 8, !tbaa !71
  %13 = getelementptr inbounds nuw %struct.Vec_Wrd_t_, ptr %12, i32 0, i32 1
  store i32 0, ptr %13, align 4, !tbaa !76
  %14 = load i32, ptr %2, align 4, !tbaa !14
  %15 = load ptr, ptr %3, align 8, !tbaa !71
  %16 = getelementptr inbounds nuw %struct.Vec_Wrd_t_, ptr %15, i32 0, i32 0
  store i32 %14, ptr %16, align 8, !tbaa !197
  %17 = load ptr, ptr %3, align 8, !tbaa !71
  %18 = getelementptr inbounds nuw %struct.Vec_Wrd_t_, ptr %17, i32 0, i32 0
  %19 = load i32, ptr %18, align 8, !tbaa !197
  %20 = icmp ne i32 %19, 0
  br i1 %20, label %21, label %28

21:                                               ; preds = %11
  %22 = load ptr, ptr %3, align 8, !tbaa !71
  %23 = getelementptr inbounds nuw %struct.Vec_Wrd_t_, ptr %22, i32 0, i32 0
  %24 = load i32, ptr %23, align 8, !tbaa !197
  %25 = sext i32 %24 to i64
  %26 = mul i64 8, %25
  %27 = call noalias ptr @malloc(i64 noundef %26) #15
  br label %29

28:                                               ; preds = %11
  br label %29

29:                                               ; preds = %28, %21
  %30 = phi ptr [ %27, %21 ], [ null, %28 ]
  %31 = load ptr, ptr %3, align 8, !tbaa !71
  %32 = getelementptr inbounds nuw %struct.Vec_Wrd_t_, ptr %31, i32 0, i32 2
  store ptr %30, ptr %32, align 8, !tbaa !78
  %33 = load ptr, ptr %3, align 8, !tbaa !71
  call void @llvm.lifetime.end.p0(i64 8, ptr %3) #13
  ret ptr %33
}

; Function Attrs: inlinehint nounwind uwtable
define internal void @Abc_TtXorBit(ptr noundef %0, i32 noundef %1) #3 {
  %3 = alloca ptr, align 8
  %4 = alloca i32, align 4
  store ptr %0, ptr %3, align 8, !tbaa !30
  store i32 %1, ptr %4, align 4, !tbaa !14
  %5 = load i32, ptr %4, align 4, !tbaa !14
  %6 = and i32 %5, 63
  %7 = zext i32 %6 to i64
  %8 = shl i64 1, %7
  %9 = load ptr, ptr %3, align 8, !tbaa !30
  %10 = load i32, ptr %4, align 4, !tbaa !14
  %11 = ashr i32 %10, 6
  %12 = sext i32 %11 to i64
  %13 = getelementptr inbounds i64, ptr %9, i64 %12
  %14 = load i64, ptr %13, align 8, !tbaa !79
  %15 = xor i64 %14, %8
  store i64 %15, ptr %13, align 8, !tbaa !79
  ret void
}

; Function Attrs: inlinehint nounwind uwtable
define internal ptr @Vec_WrdArray(ptr noundef %0) #3 {
  %2 = alloca ptr, align 8
  store ptr %0, ptr %2, align 8, !tbaa !71
  %3 = load ptr, ptr %2, align 8, !tbaa !71
  %4 = getelementptr inbounds nuw %struct.Vec_Wrd_t_, ptr %3, i32 0, i32 2
  %5 = load ptr, ptr %4, align 8, !tbaa !78
  ret ptr %5
}

; Function Attrs: inlinehint nounwind uwtable
define internal ptr @Vec_WrdStart(i32 noundef %0) #3 {
  %2 = alloca i32, align 4
  %3 = alloca ptr, align 8
  store i32 %0, ptr %2, align 4, !tbaa !14
  call void @llvm.lifetime.start.p0(i64 8, ptr %3) #13
  %4 = load i32, ptr %2, align 4, !tbaa !14
  %5 = call ptr @Vec_WrdAlloc(i32 noundef %4)
  store ptr %5, ptr %3, align 8, !tbaa !71
  %6 = load i32, ptr %2, align 4, !tbaa !14
  %7 = load ptr, ptr %3, align 8, !tbaa !71
  %8 = getelementptr inbounds nuw %struct.Vec_Wrd_t_, ptr %7, i32 0, i32 1
  store i32 %6, ptr %8, align 4, !tbaa !76
  %9 = load ptr, ptr %3, align 8, !tbaa !71
  %10 = getelementptr inbounds nuw %struct.Vec_Wrd_t_, ptr %9, i32 0, i32 2
  %11 = load ptr, ptr %10, align 8, !tbaa !78
  %12 = load i32, ptr %2, align 4, !tbaa !14
  %13 = sext i32 %12 to i64
  %14 = mul i64 8, %13
  call void @llvm.memset.p0.i64(ptr align 8 %11, i8 0, i64 %14, i1 false)
  %15 = load ptr, ptr %3, align 8, !tbaa !71
  call void @llvm.lifetime.end.p0(i64 8, ptr %3) #13
  ret ptr %15
}

; Function Attrs: nounwind uwtable
define i32 @Vec_WrdReadText2(ptr noundef %0, ptr noundef %1) #0 {
  %3 = alloca i32, align 4
  %4 = alloca ptr, align 8
  %5 = alloca ptr, align 8
  %6 = alloca i32, align 4
  %7 = alloca i32, align 4
  %8 = alloca i32, align 4
  %9 = alloca i32, align 4
  %10 = alloca i32, align 4
  %11 = alloca i32, align 4
  %12 = alloca [2000 x i8], align 16
  %13 = alloca ptr, align 8
  %14 = alloca ptr, align 8
  %15 = alloca i32, align 4
  store ptr %0, ptr %4, align 8, !tbaa !3
  store ptr %1, ptr %5, align 8, !tbaa !69
  call void @llvm.lifetime.start.p0(i64 4, ptr %6) #13
  call void @llvm.lifetime.start.p0(i64 4, ptr %7) #13
  call void @llvm.lifetime.start.p0(i64 4, ptr %8) #13
  call void @llvm.lifetime.start.p0(i64 4, ptr %9) #13
  call void @llvm.lifetime.start.p0(i64 4, ptr %10) #13
  call void @llvm.lifetime.start.p0(i64 4, ptr %11) #13
  call void @llvm.lifetime.start.p0(i64 2000, ptr %12) #13
  call void @llvm.lifetime.start.p0(i64 8, ptr %13) #13
  call void @llvm.lifetime.start.p0(i64 8, ptr %14) #13
  %16 = load ptr, ptr %4, align 8, !tbaa !3
  %17 = call noalias ptr @fopen(ptr noundef %16, ptr noundef @.str)
  store ptr %17, ptr %14, align 8, !tbaa !10
  %18 = load ptr, ptr %14, align 8, !tbaa !10
  %19 = icmp eq ptr %18, null
  br i1 %19, label %20, label %23

20:                                               ; preds = %2
  %21 = load ptr, ptr %4, align 8, !tbaa !3
  %22 = call i32 (ptr, ...) @printf(ptr noundef @.str.1, ptr noundef %21)
  store i32 0, ptr %3, align 4
  store i32 1, ptr %15, align 4
  br label %122

23:                                               ; preds = %2
  %24 = getelementptr inbounds [2000 x i8], ptr %12, i64 0, i64 0
  %25 = load ptr, ptr %14, align 8, !tbaa !10
  %26 = call ptr @fgets(ptr noundef %24, i32 noundef 2000, ptr noundef %25)
  %27 = icmp ne ptr %26, null
  br i1 %27, label %28, label %34

28:                                               ; preds = %23
  %29 = getelementptr inbounds [2000 x i8], ptr %12, i64 0, i64 0
  %30 = call i64 @strlen(ptr noundef %29) #14
  %31 = sub i64 %30, 1
  %32 = trunc i64 %31 to i32
  store i32 %32, ptr %11, align 4, !tbaa !14
  %33 = icmp slt i32 %32, 1
  br i1 %33, label %34, label %39

34:                                               ; preds = %28, %23
  %35 = load ptr, ptr %4, align 8, !tbaa !3
  %36 = call i32 (ptr, ...) @printf(ptr noundef @.str.10, ptr noundef %35)
  %37 = load ptr, ptr %14, align 8, !tbaa !10
  %38 = call i32 @fclose(ptr noundef %37)
  store i32 0, ptr %3, align 4
  store i32 1, ptr %15, align 4
  br label %122

39:                                               ; preds = %28
  %40 = load ptr, ptr %14, align 8, !tbaa !10
  %41 = call i32 @fseek(ptr noundef %40, i64 noundef 0, i32 noundef 2)
  %42 = load ptr, ptr %14, align 8, !tbaa !10
  %43 = call i64 @ftell(ptr noundef %42)
  %44 = trunc i64 %43 to i32
  store i32 %44, ptr %7, align 4, !tbaa !14
  %45 = load i32, ptr %7, align 4, !tbaa !14
  %46 = load i32, ptr %11, align 4, !tbaa !14
  %47 = add nsw i32 %46, 1
  %48 = srem i32 %45, %47
  %49 = icmp sgt i32 %48, 0
  br i1 %49, label %50, label %58

50:                                               ; preds = %39
  %51 = load i32, ptr %7, align 4, !tbaa !14
  %52 = load i32, ptr %11, align 4, !tbaa !14
  %53 = add nsw i32 %52, 1
  %54 = srem i32 %51, %53
  %55 = call i32 (ptr, ...) @printf(ptr noundef @.str.8, i32 noundef %54)
  %56 = load ptr, ptr %14, align 8, !tbaa !10
  %57 = call i32 @fclose(ptr noundef %56)
  store i32 0, ptr %3, align 4
  store i32 1, ptr %15, align 4
  br label %122

58:                                               ; preds = %39
  %59 = load ptr, ptr %14, align 8, !tbaa !10
  call void @rewind(ptr noundef %59)
  %60 = load i32, ptr %7, align 4, !tbaa !14
  %61 = load i32, ptr %11, align 4, !tbaa !14
  %62 = add nsw i32 %61, 1
  %63 = sdiv i32 %60, %62
  store i32 %63, ptr %9, align 4, !tbaa !14
  %64 = load i32, ptr %9, align 4, !tbaa !14
  %65 = add nsw i32 %64, 63
  %66 = sdiv i32 %65, 64
  store i32 %66, ptr %10, align 4, !tbaa !14
  %67 = load i32, ptr %11, align 4, !tbaa !14
  %68 = load i32, ptr %10, align 4, !tbaa !14
  %69 = mul nsw i32 %67, %68
  %70 = call ptr @Vec_WrdStart(i32 noundef %69)
  store ptr %70, ptr %13, align 8, !tbaa !71
  store i32 0, ptr %8, align 4, !tbaa !14
  br label %71

71:                                               ; preds = %106, %58
  %72 = getelementptr inbounds [2000 x i8], ptr %12, i64 0, i64 0
  %73 = load ptr, ptr %14, align 8, !tbaa !10
  %74 = call ptr @fgets(ptr noundef %72, i32 noundef 2000, ptr noundef %73)
  %75 = icmp ne ptr %74, null
  br i1 %75, label %76, label %109

76:                                               ; preds = %71
  store i32 0, ptr %6, align 4, !tbaa !14
  br label %77

77:                                               ; preds = %102, %76
  %78 = load i32, ptr %6, align 4, !tbaa !14
  %79 = load i32, ptr %11, align 4, !tbaa !14
  %80 = icmp slt i32 %78, %79
  br i1 %80, label %81, label %105

81:                                               ; preds = %77
  %82 = load i32, ptr %11, align 4, !tbaa !14
  %83 = sub nsw i32 %82, 1
  %84 = load i32, ptr %6, align 4, !tbaa !14
  %85 = sub nsw i32 %83, %84
  %86 = sext i32 %85 to i64
  %87 = getelementptr inbounds [2000 x i8], ptr %12, i64 0, i64 %86
  %88 = load i8, ptr %87, align 1, !tbaa !72
  %89 = sext i8 %88 to i32
  %90 = icmp eq i32 %89, 49
  br i1 %90, label %91, label %100

91:                                               ; preds = %81
  %92 = load ptr, ptr %13, align 8, !tbaa !71
  %93 = call ptr @Vec_WrdArray(ptr noundef %92)
  %94 = load i32, ptr %6, align 4, !tbaa !14
  %95 = load i32, ptr %10, align 4, !tbaa !14
  %96 = mul nsw i32 %94, %95
  %97 = sext i32 %96 to i64
  %98 = getelementptr inbounds i64, ptr %93, i64 %97
  %99 = load i32, ptr %8, align 4, !tbaa !14
  call void @Abc_TtXorBit(ptr noundef %98, i32 noundef %99)
  br label %101

100:                                              ; preds = %81
  br label %101

101:                                              ; preds = %100, %91
  br label %102

102:                                              ; preds = %101
  %103 = load i32, ptr %6, align 4, !tbaa !14
  %104 = add nsw i32 %103, 1
  store i32 %104, ptr %6, align 4, !tbaa !14
  br label %77, !llvm.loop !80

105:                                              ; preds = %77
  br label %106

106:                                              ; preds = %105
  %107 = load i32, ptr %8, align 4, !tbaa !14
  %108 = add nsw i32 %107, 1
  store i32 %108, ptr %8, align 4, !tbaa !14
  br label %71, !llvm.loop !81

109:                                              ; preds = %71
  %110 = load ptr, ptr %14, align 8, !tbaa !10
  %111 = call i32 @fclose(ptr noundef %110)
  %112 = load ptr, ptr %13, align 8, !tbaa !71
  %113 = load ptr, ptr %5, align 8, !tbaa !69
  store ptr %112, ptr %113, align 8, !tbaa !71
  %114 = load i32, ptr %10, align 4, !tbaa !14
  %115 = load i32, ptr %11, align 4, !tbaa !14
  %116 = load i32, ptr %10, align 4, !tbaa !14
  %117 = mul nsw i32 %116, 64
  %118 = load i32, ptr %9, align 4, !tbaa !14
  %119 = sub nsw i32 %117, %118
  %120 = call i32 (ptr, ...) @printf(ptr noundef @.str.11, i32 noundef %114, i32 noundef %115, i32 noundef %119)
  %121 = load i32, ptr %11, align 4, !tbaa !14
  store i32 %121, ptr %3, align 4
  store i32 1, ptr %15, align 4
  br label %122

122:                                              ; preds = %109, %50, %34, %20
  call void @llvm.lifetime.end.p0(i64 8, ptr %14) #13
  call void @llvm.lifetime.end.p0(i64 8, ptr %13) #13
  call void @llvm.lifetime.end.p0(i64 2000, ptr %12) #13
  call void @llvm.lifetime.end.p0(i64 4, ptr %11) #13
  call void @llvm.lifetime.end.p0(i64 4, ptr %10) #13
  call void @llvm.lifetime.end.p0(i64 4, ptr %9) #13
  call void @llvm.lifetime.end.p0(i64 4, ptr %8) #13
  call void @llvm.lifetime.end.p0(i64 4, ptr %7) #13
  call void @llvm.lifetime.end.p0(i64 4, ptr %6) #13
  %123 = load i32, ptr %3, align 4
  ret i32 %123
}