; Function Attrs: nofree nounwind uwtable
define range(i32 0, -2147483648) i32 @Vec_WrdReadText2(ptr noundef %0, ptr noundef writeonly captures(none) %1) local_unnamed_addr #9 {
  %3 = alloca [2000 x i8], align 16
  call void @llvm.lifetime.start.p0(i64 2000, ptr nonnull %3) #24
  %4 = tail call noalias ptr @fopen(ptr noundef %0, ptr noundef nonnull @.str)
  %5 = icmp eq ptr %4, null
  br i1 %5, label %6, label %8

6:                                                ; preds = %2
  %7 = tail call i32 (ptr, ...) @printf(ptr noundef nonnull dereferenceable(1) @.str.1, ptr noundef %0)
  br label %67

8:                                                ; preds = %2
  %9 = call ptr @fgets(ptr noundef nonnull %3, i32 noundef 2000, ptr noundef nonnull %4)
  %.not = icmp eq ptr %9, null
  br i1 %.not, label %15, label %10

10:                                               ; preds = %8
  %11 = call i64 @strlen(ptr noundef nonnull dereferenceable(1) %3) #27
  %12 = trunc i64 %11 to i32
  %13 = add i32 %12, -1
  %14 = icmp slt i32 %13, 1
  br i1 %14, label %15, label %18

15:                                               ; preds = %10, %8
  %16 = call i32 (ptr, ...) @printf(ptr noundef nonnull dereferenceable(1) @.str.10, ptr noundef %0)
  %17 = call i32 @fclose(ptr noundef nonnull %4)
  br label %67

18:                                               ; preds = %10
  %19 = call i32 @fseek(ptr noundef nonnull %4, i64 noundef 0, i32 noundef 2)
  %20 = call i64 @ftell(ptr noundef nonnull %4)
  %21 = trunc i64 %20 to i32
  %22 = srem i32 %21, %12
  %23 = sdiv i32 %21, %12
  %24 = icmp sgt i32 %22, 0
  br i1 %24, label %25, label %28

25:                                               ; preds = %18
  %26 = call i32 (ptr, ...) @printf(ptr noundef nonnull dereferenceable(1) @.str.8, i32 noundef %22)
  %27 = call i32 @fclose(ptr noundef nonnull %4)
  br label %67

28:                                               ; preds = %18
  call void @rewind(ptr noundef nonnull %4)
  %29 = add nsw i32 %23, 63
  %30 = sdiv i32 %29, 64
  %31 = mul nsw i32 %30, %13
  %32 = call noalias dereferenceable_or_null(16) ptr @malloc(i64 noundef 16) #25
  %33 = add i32 %31, -1
  %or.cond.i.i = icmp ult i32 %33, 15
  %spec.store.select.i.i = select i1 %or.cond.i.i, i32 16, i32 %31
  store i32 %spec.store.select.i.i, ptr %32, align 8, !tbaa !56
  %.not.i.i = icmp eq i32 %spec.store.select.i.i, 0
  br i1 %.not.i.i, label %Vec_WrdStart.exit, label %34

34:                                               ; preds = %28
  %35 = sext i32 %spec.store.select.i.i to i64
  %36 = shl nsw i64 %35, 3
  %37 = call noalias ptr @malloc(i64 noundef %36) #25
  br label %Vec_WrdStart.exit

Vec_WrdStart.exit:                                ; preds = %28, %34
  %.val.us = phi ptr [ %37, %34 ], [ null, %28 ]
  %38 = getelementptr inbounds nuw i8, ptr %32, i64 4
  %39 = getelementptr inbounds nuw i8, ptr %32, i64 8
  store ptr %.val.us, ptr %39, align 8, !tbaa !59
  store i32 %31, ptr %38, align 4, !tbaa !60
  %40 = sext i32 %31 to i64
  %41 = shl nsw i64 %40, 3
  call void @llvm.memset.p0.i64(ptr align 8 %.val.us, i8 0, i64 %41, i1 false)
  %42 = call ptr @fgets(ptr noundef nonnull %3, i32 noundef 2000, ptr noundef nonnull %4)
  %.not4345 = icmp eq ptr %42, null
  br i1 %.not4345, label %._crit_edge47, label %.preheader.us.preheader

.preheader.us.preheader:                          ; preds = %Vec_WrdStart.exit
  %43 = add i64 %11, 4294967294
  %44 = sext i32 %30 to i64
  %wide.trip.count = zext nneg i32 %13 to i64
  br label %.preheader.us

.preheader.us:                                    ; preds = %.preheader.us.preheader, %._crit_edge.us
  %.03946.us = phi i32 [ %61, %._crit_edge.us ], [ 0, %.preheader.us.preheader ]
  %45 = and i32 %.03946.us, 63
  %46 = zext nneg i32 %45 to i64
  %47 = shl nuw i64 1, %46
  %48 = lshr i32 %.03946.us, 6
  %49 = zext nneg i32 %48 to i64
  %invariant.gep = getelementptr i64, ptr %.val.us, i64 %49
  br label %50

50:                                               ; preds = %.preheader.us, %60
  %indvars.iv = phi i64 [ 0, %.preheader.us ], [ %indvars.iv.next, %60 ]
  %51 = sub i64 %43, %indvars.iv
  %sext = shl i64 %51, 32
  %52 = ashr exact i64 %sext, 32
  %53 = getelementptr inbounds [2000 x i8], ptr %3, i64 0, i64 %52
  %54 = load i8, ptr %53, align 1, !tbaa !61
  %55 = icmp eq i8 %54, 49
  br i1 %55, label %56, label %60

56:                                               ; preds = %50
  %57 = mul nsw i64 %indvars.iv, %44
  %gep = getelementptr i64, ptr %invariant.gep, i64 %57
  %58 = load i64, ptr %gep, align 8, !tbaa !62
  %59 = xor i64 %58, %47
  store i64 %59, ptr %gep, align 8, !tbaa !62
  br label %60

60:                                               ; preds = %56, %50
  %indvars.iv.next = add nuw nsw i64 %indvars.iv, 1
  %exitcond.not = icmp eq i64 %indvars.iv.next, %wide.trip.count
  br i1 %exitcond.not, label %._crit_edge.us, label %50, !llvm.loop !67

._crit_edge.us:                                   ; preds = %60
  %61 = add nuw nsw i32 %.03946.us, 1
  %62 = call ptr @fgets(ptr noundef nonnull %3, i32 noundef 2000, ptr noundef nonnull %4)
  %.not43.us = icmp eq ptr %62, null
  br i1 %.not43.us, label %._crit_edge47, label %.preheader.us, !llvm.loop !68

._crit_edge47:                                    ; preds = %._crit_edge.us, %Vec_WrdStart.exit
  %63 = call i32 @fclose(ptr noundef nonnull %4)
  store ptr %32, ptr %1, align 8, !tbaa !66
  %64 = shl nsw i32 %30, 6
  %65 = sub nsw i32 %64, %23
  %66 = call i32 (ptr, ...) @printf(ptr noundef nonnull dereferenceable(1) @.str.11, i32 noundef %30, i32 noundef %13, i32 noundef %65)
  br label %67

67:                                               ; preds = %._crit_edge47, %25, %15, %6
  %.0 = phi i32 [ 0, %6 ], [ 0, %15 ], [ 0, %25 ], [ %13, %._crit_edge47 ]
  call void @llvm.lifetime.end.p0(i64 2000, ptr nonnull %3) #24
  ret i32 %.0
}